target datalayout = "e-m:e-p270:32:32-p271:32:32-p272:64:64-i64:64-i128:128-f80:128-n8:16:32:64-S128"
target triple = "x86_64-pc-linux-gnu"

%"class.tbb::detail::r1::thread_request_serializer" = type <{ %"class.tbb::detail::r1::thread_request_observer", ptr, i32, %"struct.std::atomic", %"struct.std::atomic.0", %"class.tbb::detail::d1::mutex", [7 x i8] }>
%"class.tbb::detail::r1::thread_request_observer" = type { ptr }
%"struct.std::atomic" = type { %"struct.std::__atomic_base" }
%"struct.std::__atomic_base" = type { i32 }
%"struct.std::atomic.0" = type { %"struct.std::__atomic_base.1" }
%"struct.std::__atomic_base.1" = type { i64 }
%"class.tbb::detail::d1::mutex" = type { %"class.tbb::detail::d1::waitable_atomic" }
%"class.tbb::detail::d1::waitable_atomic" = type { %"struct.std::atomic.2" }
%"struct.std::atomic.2" = type { %"struct.std::__atomic_base.3" }
%"struct.std::__atomic_base.3" = type { i8 }
%"class.tbb::detail::d1::unique_scoped_lock" = type { ptr }
%"class.tbb::detail::r1::thread_request_serializer_proxy" = type { %"class.tbb::detail::r1::thread_request_observer", %"struct.std::atomic", i8, [3 x i8], %"class.tbb::detail::r1::thread_request_serializer", %"class.tbb::detail::d1::rw_mutex" }
%"class.tbb::detail::d1::rw_mutex" = type { %"struct.std::atomic.4" }
%"struct.std::atomic.4" = type { %"struct.std::__atomic_base.5" }
%"struct.std::__atomic_base.5" = type { i64 }
%"class.tbb::detail::d1::rw_scoped_lock" = type <{ ptr, i8, [7 x i8] }>

; Function Attrs: mustprogress nounwind sspstrong uwtable
define linkonce_odr noundef i32 @_ZN3tbb6detail2r13minIiEET_RKS3_S5_(ptr noundef nonnull align 4 dereferenceable(4) %0, ptr noundef nonnull align 4 dereferenceable(4) %1) #2 comdat {
  %3 = alloca ptr, align 8
  %4 = alloca ptr, align 8
  store ptr %0, ptr %3, align 8, !tbaa !47
  store ptr %1, ptr %4, align 8, !tbaa !47
  %5 = load ptr, ptr %3, align 8, !tbaa !47
  %6 = load i32, ptr %5, align 4, !tbaa !10
  %7 = load ptr, ptr %4, align 8, !tbaa !47
  %8 = load i32, ptr %7, align 4, !tbaa !10
  %9 = icmp slt i32 %6, %8
  br i1 %9, label %10, label %13

10:                                               ; preds = %2
  %11 = load ptr, ptr %3, align 8, !tbaa !47
  %12 = load i32, ptr %11, align 4, !tbaa !10
  br label %16

13:                                               ; preds = %2
  %14 = load ptr, ptr %4, align 8, !tbaa !47
  %15 = load i32, ptr %14, align 4, !tbaa !10
  br label %16

16:                                               ; preds = %13, %10
  %17 = phi i32 [ %12, %10 ], [ %15, %13 ]
  ret i32 %17
}

; Function Attrs: mustprogress sspstrong uwtable
define noundef i32 @_ZN3tbb6detail2r125thread_request_serializer11limit_deltaEiii(i32 noundef %0, i32 noundef %1, i32 noundef %2) #0 align 2 {
  %4 = alloca i32, align 4
  %5 = alloca i32, align 4
  %6 = alloca i32, align 4
  %7 = alloca i32, align 4
  store i32 %0, ptr %4, align 4, !tbaa !10
  store i32 %1, ptr %5, align 4, !tbaa !10
  store i32 %2, ptr %6, align 4, !tbaa !10
  call void @llvm.lifetime.start.p0(i64 4, ptr %7) #10
  %8 = load i32, ptr %6, align 4, !tbaa !10
  %9 = load i32, ptr %4, align 4, !tbaa !10
  %10 = sub nsw i32 %8, %9
  store i32 %10, ptr %7, align 4, !tbaa !10
  %11 = call noundef i32 @_ZN3tbb6detail2r13minIiEET_RKS3_S5_(ptr noundef nonnull align 4 dereferenceable(4) %5, ptr noundef nonnull align 4 dereferenceable(4) %6)
  store i32 %11, ptr %6, align 4, !tbaa !10
  %12 = call noundef i32 @_ZN3tbb6detail2r13minIiEET_RKS3_S5_(ptr noundef nonnull align 4 dereferenceable(4) %5, ptr noundef nonnull align 4 dereferenceable(4) %7)
  store i32 %12, ptr %7, align 4, !tbaa !10
  %13 = load i32, ptr %6, align 4, !tbaa !10
  %14 = load i32, ptr %7, align 4, !tbaa !10
  %15 = sub nsw i32 %13, %14
  call void @llvm.lifetime.end.p0(i64 4, ptr %7) #10
  ret i32 %15
}

; Function Attrs: mustprogress sspstrong uwtable
define linkonce_odr void @_ZN3tbb6detail2d118unique_scoped_lockINS1_5mutexEEC2ERS3_(ptr noundef nonnull align 8 dereferenceable(8) %0, ptr noundef nonnull align 1 dereferenceable(1) %1) unnamed_addr #0 comdat align 2 {
  %3 = alloca ptr, align 8
  %4 = alloca ptr, align 8
  store ptr %0, ptr %3, align 8, !tbaa !41
  store ptr %1, ptr %4, align 8, !tbaa !34
  %5 = load ptr, ptr %3, align 8
  %6 = getelementptr inbounds nuw %"class.tbb::detail::d1::unique_scoped_lock", ptr %5, i32 0, i32 0
  store ptr null, ptr %6, align 8, !tbaa !43
  %7 = load ptr, ptr %4, align 8, !tbaa !34
  call void @_ZN3tbb6detail2d118unique_scoped_lockINS1_5mutexEE7acquireERS3_(ptr noundef nonnull align 8 dereferenceable(8) %5, ptr noundef nonnull align 1 dereferenceable(1) %7)
  ret void
}

; Function Attrs: mustprogress nounwind sspstrong uwtable
define linkonce_odr noundef i32 @_ZStanSt12memory_orderSt23__memory_order_modifier(i32 noundef %0, i32 noundef %1) #2 comdat {
  %3 = alloca i32, align 4
  %4 = alloca i32, align 4
  store i32 %0, ptr %3, align 4, !tbaa !39
  store i32 %1, ptr %4, align 4, !tbaa !83
  %5 = load i32, ptr %3, align 4, !tbaa !39
  %6 = load i32, ptr %4, align 4, !tbaa !83
  %7 = and i32 %5, %6
  ret i32 %7
}

; Function Attrs: mustprogress sspstrong uwtable
define void @_ZN3tbb6detail2r125thread_request_serializer22set_active_num_workersEi(ptr noundef nonnull align 8 dereferenceable(33) %0, i32 noundef %1) #0 align 2 personality ptr @__gxx_personality_v0 {
  %3 = alloca ptr, align 8
  %4 = alloca i32, align 4
  %5 = alloca %"class.tbb::detail::d1::unique_scoped_lock", align 8
  %6 = alloca i32, align 4
  %7 = alloca ptr, align 8
  %8 = alloca i32, align 4
  store ptr %0, ptr %3, align 8, !tbaa !3
  store i32 %1, ptr %4, align 4, !tbaa !10
  %9 = load ptr, ptr %3, align 8
  call void @llvm.lifetime.start.p0(i64 8, ptr %5) #10
  %10 = getelementptr inbounds nuw %"class.tbb::detail::r1::thread_request_serializer", ptr %9, i32 0, i32 5
  call void @_ZN3tbb6detail2d118unique_scoped_lockINS1_5mutexEEC2ERS3_(ptr noundef nonnull align 8 dereferenceable(8) %5, ptr noundef nonnull align 1 dereferenceable(1) %10)
  call void @llvm.lifetime.start.p0(i64 4, ptr %6) #10
  %11 = load i32, ptr %4, align 4, !tbaa !10
  %12 = getelementptr inbounds nuw %"class.tbb::detail::r1::thread_request_serializer", ptr %9, i32 0, i32 2
  %13 = load i32, ptr %12, align 8, !tbaa !14
  %14 = sub nsw i32 %11, %13
  store i32 %14, ptr %6, align 4, !tbaa !10
  %15 = load i32, ptr %6, align 4, !tbaa !10
  %16 = getelementptr inbounds nuw %"class.tbb::detail::r1::thread_request_serializer", ptr %9, i32 0, i32 3
  %17 = call noundef i32 @_ZNKSt13__atomic_baseIiE4loadESt12memory_order(ptr noundef nonnull align 4 dereferenceable(4) %16, i32 noundef 0) #10
  %18 = load i32, ptr %4, align 4, !tbaa !10
  %19 = invoke noundef i32 @_ZN3tbb6detail2r125thread_request_serializer11limit_deltaEiii(i32 noundef %15, i32 noundef %17, i32 noundef %18)
          to label %20 unwind label %27

20:                                               ; preds = %2
  store i32 %19, ptr %6, align 4, !tbaa !10
  %21 = getelementptr inbounds nuw %"class.tbb::detail::r1::thread_request_serializer", ptr %9, i32 0, i32 1
  %22 = load ptr, ptr %21, align 8, !tbaa !36
  %23 = load i32, ptr %6, align 4, !tbaa !10
  invoke void @_ZN3tbb6detail2r117thread_dispatcher25adjust_job_count_estimateEi(ptr noundef nonnull align 8 dereferenceable(152) %22, i32 noundef %23)
          to label %24 unwind label %27

24:                                               ; preds = %20
  %25 = load i32, ptr %4, align 4, !tbaa !10
  %26 = getelementptr inbounds nuw %"class.tbb::detail::r1::thread_request_serializer", ptr %9, i32 0, i32 2
  store i32 %25, ptr %26, align 8, !tbaa !14
  call void @llvm.lifetime.end.p0(i64 4, ptr %6) #10
  call void @_ZN3tbb6detail2d118unique_scoped_lockINS1_5mutexEED2Ev(ptr noundef nonnull align 8 dereferenceable(8) %5) #10
  call void @llvm.lifetime.end.p0(i64 8, ptr %5) #10
  ret void

27:                                               ; preds = %20, %2
  %28 = landingpad { ptr, i32 }
          cleanup
  %29 = extractvalue { ptr, i32 } %28, 0
  store ptr %29, ptr %7, align 8
  %30 = extractvalue { ptr, i32 } %28, 1
  store i32 %30, ptr %8, align 4
  call void @llvm.lifetime.end.p0(i64 4, ptr %6) #10
  call void @_ZN3tbb6detail2d118unique_scoped_lockINS1_5mutexEED2Ev(ptr noundef nonnull align 8 dereferenceable(8) %5) #10
  call void @llvm.lifetime.end.p0(i64 8, ptr %5) #10
  br label %31

31:                                               ; preds = %27
  %32 = load ptr, ptr %7, align 8
  %33 = load i32, ptr %8, align 4
  %34 = insertvalue { ptr, i32 } poison, ptr %32, 0
  %35 = insertvalue { ptr, i32 } %34, i32 %33, 1
  resume { ptr, i32 } %35
}

; Function Attrs: mustprogress nounwind sspstrong uwtable
define linkonce_odr noundef zeroext i1 @_ZN3tbb6detail2r125thread_request_serializer23is_no_workers_avaliableEv(ptr noundef nonnull align 8 dereferenceable(33) %0) #2 comdat align 2 {
  %2 = alloca ptr, align 8
  store ptr %0, ptr %2, align 8, !tbaa !3
  %3 = load ptr, ptr %2, align 8
  %4 = getelementptr inbounds nuw %"class.tbb::detail::r1::thread_request_serializer", ptr %3, i32 0, i32 2
  %5 = load i32, ptr %4, align 8, !tbaa !14
  %6 = icmp eq i32 %5, 0
  ret i1 %6
}

; Function Attrs: alwaysinline mustprogress nounwind sspstrong uwtable
define linkonce_odr noundef i32 @_ZNKSt13__atomic_baseIiE4loadESt12memory_order(ptr noundef nonnull align 4 dereferenceable(4) %0, i32 noundef %1) #4 comdat align 2 personality ptr @__gxx_personality_v0 {
  %3 = alloca ptr, align 8
  %4 = alloca i32, align 4
  %5 = alloca i32, align 4
  %6 = alloca i32, align 4
  store ptr %0, ptr %3, align 8, !tbaa !45
  store i32 %1, ptr %4, align 4, !tbaa !39
  %7 = load ptr, ptr %3, align 8
  call void @llvm.lifetime.start.p0(i64 4, ptr %5) #10
  %8 = load i32, ptr %4, align 4, !tbaa !39
  %9 = invoke noundef i32 @_ZStanSt12memory_orderSt23__memory_order_modifier(i32 noundef %8, i32 noundef 65535)
          to label %10 unwind label %27

10:                                               ; preds = %2
  store i32 %9, ptr %5, align 4, !tbaa !39
  br label %11

11:                                               ; preds = %10
  br label %12

12:                                               ; preds = %11
  br label %13

13:                                               ; preds = %12
  br label %14

14:                                               ; preds = %13
  br label %15

15:                                               ; preds = %14
  br label %16

16:                                               ; preds = %15
  %17 = getelementptr inbounds nuw %"struct.std::__atomic_base", ptr %7, i32 0, i32 0
  %18 = load i32, ptr %4, align 4, !tbaa !39
  switch i32 %18, label %19 [
    i32 1, label %21
    i32 2, label %21
    i32 5, label %23
  ]

19:                                               ; preds = %16
  %20 = load atomic i32, ptr %17 monotonic, align 4
  store i32 %20, ptr %6, align 4
  br label %25

21:                                               ; preds = %16, %16
  %22 = load atomic i32, ptr %17 acquire, align 4
  store i32 %22, ptr %6, align 4
  br label %25

23:                                               ; preds = %16
  %24 = load atomic i32, ptr %17 seq_cst, align 4
  store i32 %24, ptr %6, align 4
  br label %25

25:                                               ; preds = %23, %21, %19
  %26 = load i32, ptr %6, align 4, !tbaa !10
  call void @llvm.lifetime.end.p0(i64 4, ptr %5) #10
  ret i32 %26

27:                                               ; preds = %2
  %28 = landingpad { ptr, i32 }
          catch ptr null
  %29 = extractvalue { ptr, i32 } %28, 0
  call void @__clang_call_terminate(ptr %29) #12
  unreachable
}

; Function Attrs: mustprogress sspstrong uwtable
define linkonce_odr noundef zeroext i1 @_ZN3tbb6detail2d114rw_scoped_lockINS1_8rw_mutexEE17upgrade_to_writerEv(ptr noundef nonnull align 8 dereferenceable(9) %0) #0 comdat align 2 {
  %2 = alloca i1, align 1
  %3 = alloca ptr, align 8
  store ptr %0, ptr %3, align 8, !tbaa !61
  %4 = load ptr, ptr %3, align 8
  %5 = getelementptr inbounds nuw %"class.tbb::detail::d1::rw_scoped_lock", ptr %4, i32 0, i32 1
  %6 = load i8, ptr %5, align 8, !tbaa !65, !range !59, !noundef !60
  %7 = trunc i8 %6 to i1
  br i1 %7, label %8, label %9

8:                                                ; preds = %1
  store i1 true, ptr %2, align 1
  br label %14

9:                                                ; preds = %1
  %10 = getelementptr inbounds nuw %"class.tbb::detail::d1::rw_scoped_lock", ptr %4, i32 0, i32 1
  store i8 1, ptr %10, align 8, !tbaa !65
  %11 = getelementptr inbounds nuw %"class.tbb::detail::d1::rw_scoped_lock", ptr %4, i32 0, i32 0
  %12 = load ptr, ptr %11, align 8, !tbaa !63
  %13 = call noundef zeroext i1 @_ZN3tbb6detail2d18rw_mutex7upgradeEv(ptr noundef nonnull align 8 dereferenceable(8) %12)
  store i1 %13, ptr %2, align 1
  br label %14

14:                                               ; preds = %9, %8
  %15 = load i1, ptr %2, align 1
  ret i1 %15
}

; Function Attrs: mustprogress sspstrong uwtable
define void @_ZN3tbb6detail2r131thread_request_serializer_proxy28enable_mandatory_concurrencyERNS0_2d114rw_scoped_lockINS3_8rw_mutexEEE(ptr noundef nonnull align 8 dereferenceable(64) %0, ptr noundef nonnull align 8 dereferenceable(9) %1) #0 align 2 {
  %3 = alloca ptr, align 8
  %4 = alloca ptr, align 8
  %5 = alloca i8, align 1
  store ptr %0, ptr %3, align 8, !tbaa !49
  store ptr %1, ptr %4, align 8, !tbaa !61
  %6 = load ptr, ptr %3, align 8
  %7 = load ptr, ptr %4, align 8, !tbaa !61
  %8 = call noundef zeroext i1 @_ZN3tbb6detail2d114rw_scoped_lockINS1_8rw_mutexEE17upgrade_to_writerEv(ptr noundef nonnull align 8 dereferenceable(9) %7)
  call void @llvm.lifetime.start.p0(i64 1, ptr %5) #10
  %9 = getelementptr inbounds nuw %"class.tbb::detail::r1::thread_request_serializer_proxy", ptr %6, i32 0, i32 1
  %10 = call noundef i32 @_ZNKSt13__atomic_baseIiE4loadESt12memory_order(ptr noundef nonnull align 4 dereferenceable(4) %9, i32 noundef 0) #10
  %11 = icmp sgt i32 %10, 0
  br i1 %11, label %12, label %19

12:                                               ; preds = %2
  %13 = getelementptr inbounds nuw %"class.tbb::detail::r1::thread_request_serializer_proxy", ptr %6, i32 0, i32 2
  %14 = load i8, ptr %13, align 4, !tbaa !51, !range !59, !noundef !60
  %15 = trunc i8 %14 to i1
  br i1 %15, label %19, label %16

16:                                               ; preds = %12
  %17 = getelementptr inbounds nuw %"class.tbb::detail::r1::thread_request_serializer_proxy", ptr %6, i32 0, i32 4
  %18 = call noundef zeroext i1 @_ZN3tbb6detail2r125thread_request_serializer23is_no_workers_avaliableEv(ptr noundef nonnull align 8 dereferenceable(33) %17)
  br label %19

19:                                               ; preds = %16, %12, %2
  %20 = phi i1 [ false, %12 ], [ false, %2 ], [ %18, %16 ]
  %21 = zext i1 %20 to i8
  store i8 %21, ptr %5, align 1, !tbaa !58
  %22 = load i8, ptr %5, align 1, !tbaa !58, !range !59, !noundef !60
  %23 = trunc i8 %22 to i1
  br i1 %23, label %24, label %27

24:                                               ; preds = %19
  %25 = getelementptr inbounds nuw %"class.tbb::detail::r1::thread_request_serializer_proxy", ptr %6, i32 0, i32 2
  store i8 1, ptr %25, align 4, !tbaa !51
  %26 = getelementptr inbounds nuw %"class.tbb::detail::r1::thread_request_serializer_proxy", ptr %6, i32 0, i32 4
  call void @_ZN3tbb6detail2r125thread_request_serializer22set_active_num_workersEi(ptr noundef nonnull align 8 dereferenceable(33) %26, i32 noundef 1)
  br label %27

27:                                               ; preds = %24, %19
  call void @llvm.lifetime.end.p0(i64 1, ptr %5) #10
  ret void
}